target datalayout = "e-m:e-p270:32:32-p271:32:32-p272:64:64-i64:64-i128:128-f80:128-n8:16:32:64-S128"
target triple = "x86_64-unknown-linux-gnu"

%"class.llvh::SMLoc" = type { ptr }
%"class.hermes::Identifier" = type { ptr }
%"class.llvh::StringRef" = type { ptr, i64 }
%"class.hermes::IRBuilder" = type { ptr, %"class.llvh::ilist_iterator", ptr, %"class.llvh::SMLoc", ptr }
%"class.llvh::ilist_iterator" = type { ptr }
%"class.hermes::Type" = type { i16, i16 }
%"class.hermes::Module" = type <{ %"class.hermes::Value", %"class.std::shared_ptr.19", ptr, %"class.llvh::iplist.22", %"class.std::vector", %"class.llvh::DenseMap", %"class.hermes::ScopeDesc", %"class.hermes::GlobalObject", %"class.hermes::LiteralEmpty", %"class.hermes::LiteralUndefined", %"class.hermes::LiteralNull", %"class.hermes::LiteralBool", %"class.hermes::LiteralBool", %"class.hermes::EmptySentinel", %"class.llvh::FoldingSet", %"class.llvh::FoldingSet.43", %"class.llvh::FoldingSet.45", %"class.llvh::DenseMap.47", %"class.std::deque", %"class.llvh::DenseMap.53", %"class.llvh::DenseMap.47", %"class.llvh::DenseMap.56", i8, [7 x i8], %"class.std::unordered_map", %"class.std::unordered_map.64", i8, [7 x i8] }>
%"class.hermes::Value" = type { i8, %"class.hermes::Type", %"class.llvh::SmallVector" }
%"class.llvh::SmallVector" = type { %"class.llvh::SmallVectorImpl", %"struct.llvh::SmallVectorStorage" }
%"class.llvh::SmallVectorImpl" = type { %"class.llvh::SmallVectorTemplateBase" }
%"class.llvh::SmallVectorTemplateBase" = type { %"class.llvh::SmallVectorTemplateCommon" }
%"class.llvh::SmallVectorTemplateCommon" = type { %"class.llvh::SmallVectorBase" }
%"class.llvh::SmallVectorBase" = type { ptr, i32, i32 }
%"struct.llvh::SmallVectorStorage" = type { [2 x %"struct.llvh::AlignedCharArrayUnion"] }
%"struct.llvh::AlignedCharArrayUnion" = type { %"struct.llvh::AlignedCharArray" }
%"struct.llvh::AlignedCharArray" = type { [8 x i8] }
%"class.std::shared_ptr.19" = type { %"class.std::__shared_ptr.20" }
%"class.std::__shared_ptr.20" = type { ptr, %"class.std::__shared_count" }
%"class.std::__shared_count" = type { ptr }
%"class.llvh::iplist.22" = type { %"class.llvh::iplist_impl.23" }
%"class.llvh::iplist_impl.23" = type { %"class.llvh::simple_ilist.28" }
%"class.llvh::simple_ilist.28" = type { %"class.llvh::ilist_sentinel.30" }
%"class.llvh::ilist_sentinel.30" = type { %"class.llvh::ilist_node_impl.3" }
%"class.llvh::ilist_node_impl.3" = type { %"class.llvh::ilist_node_base" }
%"class.llvh::ilist_node_base" = type { ptr, ptr }
%"class.std::vector" = type { %"struct.std::_Vector_base" }
%"struct.std::_Vector_base" = type { %"struct.std::_Vector_base<hermes::GlobalObjectProperty *, std::allocator<hermes::GlobalObjectProperty *>>::_Vector_impl" }
%"struct.std::_Vector_base<hermes::GlobalObjectProperty *, std::allocator<hermes::GlobalObjectProperty *>>::_Vector_impl" = type { %"struct.std::_Vector_base<hermes::GlobalObjectProperty *, std::allocator<hermes::GlobalObjectProperty *>>::_Vector_impl_data" }
%"struct.std::_Vector_base<hermes::GlobalObjectProperty *, std::allocator<hermes::GlobalObjectProperty *>>::_Vector_impl_data" = type { ptr, ptr, ptr }
%"class.llvh::DenseMap" = type <{ ptr, i32, i32, i32, [4 x i8] }>
%"class.hermes::ScopeDesc" = type <{ %"class.hermes::Value", ptr, %"class.llvh::SmallVector.31", %"class.std::shared_ptr", ptr, %"class.llvh::SmallVector.37", i8, [7 x i8] }>
%"class.llvh::SmallVector.31" = type { %"class.llvh::SmallVectorImpl.32", %"struct.llvh::SmallVectorStorage.35" }
%"class.llvh::SmallVectorImpl.32" = type { %"class.llvh::SmallVectorTemplateBase.33" }
%"class.llvh::SmallVectorTemplateBase.33" = type { %"class.llvh::SmallVectorTemplateCommon.34" }
%"class.llvh::SmallVectorTemplateCommon.34" = type { %"class.llvh::SmallVectorBase" }
%"struct.llvh::SmallVectorStorage.35" = type { [8 x %"struct.llvh::AlignedCharArrayUnion.36"] }
%"struct.llvh::AlignedCharArrayUnion.36" = type { %"struct.llvh::AlignedCharArray" }
%"class.std::shared_ptr" = type { %"class.std::__shared_ptr" }
%"class.std::__shared_ptr" = type { ptr, %"class.std::__shared_count" }
%"class.llvh::SmallVector.37" = type { %"class.llvh::SmallVectorImpl.38", %"struct.llvh::SmallVectorStorage.41" }
%"class.llvh::SmallVectorImpl.38" = type { %"class.llvh::SmallVectorTemplateBase.39" }
%"class.llvh::SmallVectorTemplateBase.39" = type { %"class.llvh::SmallVectorTemplateCommon.40" }
%"class.llvh::SmallVectorTemplateCommon.40" = type { %"class.llvh::SmallVectorBase" }
%"struct.llvh::SmallVectorStorage.41" = type { [8 x %"struct.llvh::AlignedCharArrayUnion.42"] }
%"struct.llvh::AlignedCharArrayUnion.42" = type { %"struct.llvh::AlignedCharArray" }
%"class.hermes::GlobalObject" = type { %"class.hermes::Literal" }
%"class.hermes::Literal" = type { %"class.hermes::Value" }
%"class.hermes::LiteralEmpty" = type { %"class.hermes::Literal" }
%"class.hermes::LiteralUndefined" = type { %"class.hermes::Literal" }
%"class.hermes::LiteralNull" = type { %"class.hermes::Literal" }
%"class.hermes::LiteralBool" = type <{ %"class.hermes::Literal", i8, [7 x i8] }>
%"class.hermes::EmptySentinel" = type { %"class.hermes::Value" }
%"class.llvh::FoldingSet" = type { %"class.llvh::FoldingSetImpl" }
%"class.llvh::FoldingSetImpl" = type { %"class.llvh::FoldingSetBase" }
%"class.llvh::FoldingSetBase" = type { ptr, ptr, i32, i32 }
%"class.llvh::FoldingSet.43" = type { %"class.llvh::FoldingSetImpl.44" }
%"class.llvh::FoldingSetImpl.44" = type { %"class.llvh::FoldingSetBase" }
%"class.llvh::FoldingSet.45" = type { %"class.llvh::FoldingSetImpl.46" }
%"class.llvh::FoldingSetImpl.46" = type { %"class.llvh::FoldingSetBase" }
%"class.std::deque" = type { %"class.std::_Deque_base" }
%"class.std::_Deque_base" = type { %"struct.std::_Deque_base<hermes::Module::CJSModule, std::allocator<hermes::Module::CJSModule>>::_Deque_impl" }
%"struct.std::_Deque_base<hermes::Module::CJSModule, std::allocator<hermes::Module::CJSModule>>::_Deque_impl" = type { %"struct.std::_Deque_base<hermes::Module::CJSModule, std::allocator<hermes::Module::CJSModule>>::_Deque_impl_data" }
%"struct.std::_Deque_base<hermes::Module::CJSModule, std::allocator<hermes::Module::CJSModule>>::_Deque_impl_data" = type { ptr, i64, %"struct.std::_Deque_iterator", %"struct.std::_Deque_iterator" }
%"struct.std::_Deque_iterator" = type { ptr, ptr, ptr, ptr }
%"class.llvh::DenseMap.53" = type <{ ptr, i32, i32, i32, [4 x i8] }>
%"class.llvh::DenseMap.47" = type <{ ptr, i32, i32, i32, [4 x i8] }>
%"class.llvh::DenseMap.56" = type <{ ptr, i32, i32, i32, [4 x i8] }>
%"class.std::unordered_map" = type { %"class.std::_Hashtable" }
%"class.std::_Hashtable" = type { ptr, i64, %"struct.std::__detail::_Hash_node_base", i64, %"struct.std::__detail::_Prime_rehash_policy", ptr }
%"struct.std::__detail::_Hash_node_base" = type { ptr }
%"struct.std::__detail::_Prime_rehash_policy" = type { float, i64 }
%"class.std::unordered_map.64" = type { %"class.std::_Hashtable.65" }
%"class.std::_Hashtable.65" = type { ptr, i64, %"struct.std::__detail::_Hash_node_base", i64, %"struct.std::__detail::_Prime_rehash_policy", ptr }
%"class.hermes::Context" = type { %"class.hermes::BacktrackingBumpPtrAllocator", %"class.hermes::BacktrackingBumpPtrAllocator", %"class.std::unique_ptr", %"class.hermes::StringTable", %"class.std::map", %"class.std::unique_ptr.96", ptr, i8, i8, i8, i32, i32, i8, i8, i8, i8, i8, i32, i8, i8, %"class.std::unique_ptr.104", %"class.std::vector.112", i32, i8, %"struct.hermes::CodeGenerationSettings", %"struct.hermes::OptimizationSettings", %"class.std::shared_ptr.120" }
%"class.hermes::BacktrackingBumpPtrAllocator" = type { %"class.std::vector.82", ptr }
%"class.std::vector.82" = type { %"struct.std::_Vector_base.83" }
%"struct.std::_Vector_base.83" = type { %"struct.std::_Vector_base<std::unique_ptr<hermes::BacktrackingBumpPtrAllocator::Slab>, std::allocator<std::unique_ptr<hermes::BacktrackingBumpPtrAllocator::Slab>>>::_Vector_impl" }
%"struct.std::_Vector_base<std::unique_ptr<hermes::BacktrackingBumpPtrAllocator::Slab>, std::allocator<std::unique_ptr<hermes::BacktrackingBumpPtrAllocator::Slab>>>::_Vector_impl" = type { %"struct.std::_Vector_base<std::unique_ptr<hermes::BacktrackingBumpPtrAllocator::Slab>, std::allocator<std::unique_ptr<hermes::BacktrackingBumpPtrAllocator::Slab>>>::_Vector_impl_data" }
%"struct.std::_Vector_base<std::unique_ptr<hermes::BacktrackingBumpPtrAllocator::Slab>, std::allocator<std::unique_ptr<hermes::BacktrackingBumpPtrAllocator::Slab>>>::_Vector_impl_data" = type { ptr, ptr, ptr }
%"class.std::unique_ptr" = type { %"struct.std::__uniq_ptr_data" }
%"struct.std::__uniq_ptr_data" = type { %"class.std::__uniq_ptr_impl" }
%"class.std::__uniq_ptr_impl" = type { %"class.std::tuple" }
%"class.std::tuple" = type { %"struct.std::_Tuple_impl" }
%"struct.std::_Tuple_impl" = type { %"struct.std::_Head_base.88" }
%"struct.std::_Head_base.88" = type { ptr }
%"class.hermes::StringTable" = type { ptr, %"class.llvh::DenseMap.89" }
%"class.llvh::DenseMap.89" = type <{ ptr, i32, i32, i32, [4 x i8] }>
%"class.std::map" = type { %"class.std::_Rb_tree" }
%"class.std::_Rb_tree" = type { %"struct.std::_Rb_tree<std::pair<hermes::UniqueString *, hermes::UniqueString *>, std::pair<const std::pair<hermes::UniqueString *, hermes::UniqueString *>, hermes::CompiledRegExp>, std::_Select1st<std::pair<const std::pair<hermes::UniqueString *, hermes::UniqueString *>, hermes::CompiledRegExp>>, std::less<std::pair<hermes::UniqueString *, hermes::UniqueString *>>>::_Rb_tree_impl" }
%"struct.std::_Rb_tree<std::pair<hermes::UniqueString *, hermes::UniqueString *>, std::pair<const std::pair<hermes::UniqueString *, hermes::UniqueString *>, hermes::CompiledRegExp>, std::_Select1st<std::pair<const std::pair<hermes::UniqueString *, hermes::UniqueString *>, hermes::CompiledRegExp>>, std::less<std::pair<hermes::UniqueString *, hermes::UniqueString *>>>::_Rb_tree_impl" = type { %"struct.std::_Rb_tree_key_compare", %"struct.std::_Rb_tree_header" }
%"struct.std::_Rb_tree_key_compare" = type { %"struct.std::less" }
%"struct.std::less" = type { i8 }
%"struct.std::_Rb_tree_header" = type { %"struct.std::_Rb_tree_node_base", i64 }
%"struct.std::_Rb_tree_node_base" = type { i32, ptr, ptr, ptr }
%"class.std::unique_ptr.96" = type { %"struct.std::__uniq_ptr_data.97" }
%"struct.std::__uniq_ptr_data.97" = type { %"class.std::__uniq_ptr_impl.98" }
%"class.std::__uniq_ptr_impl.98" = type { %"class.std::tuple.99" }
%"class.std::tuple.99" = type { %"struct.std::_Tuple_impl.100" }
%"struct.std::_Tuple_impl.100" = type { %"struct.std::_Head_base.103" }
%"struct.std::_Head_base.103" = type { ptr }
%"class.std::unique_ptr.104" = type { %"struct.std::__uniq_ptr_data.105" }
%"struct.std::__uniq_ptr_data.105" = type { %"class.std::__uniq_ptr_impl.106" }
%"class.std::__uniq_ptr_impl.106" = type { %"class.std::tuple.107" }
%"class.std::tuple.107" = type { %"struct.std::_Tuple_impl.108" }
%"struct.std::_Tuple_impl.108" = type { %"struct.std::_Head_base.111" }
%"struct.std::_Head_base.111" = type { ptr }
%"class.std::vector.112" = type { %"struct.std::_Vector_base.113" }
%"struct.std::_Vector_base.113" = type { %"struct.std::_Vector_base<unsigned int, std::allocator<unsigned int>>::_Vector_impl" }
%"struct.std::_Vector_base<unsigned int, std::allocator<unsigned int>>::_Vector_impl" = type { %"struct.std::_Vector_base<unsigned int, std::allocator<unsigned int>>::_Vector_impl_data" }
%"struct.std::_Vector_base<unsigned int, std::allocator<unsigned int>>::_Vector_impl_data" = type { ptr, ptr, ptr }
%"struct.hermes::CodeGenerationSettings" = type { i8, i8, i8, i8, i8, i8, i8, i8, i8, i8, [6 x i8], %"struct.hermes::CodeGenerationSettings_DumpSettings", %"struct.hermes::CodeGenerationSettings_DumpSettings", %"class.llvh::SmallDenseSet" }
%"struct.hermes::CodeGenerationSettings_DumpSettings" = type { i8, [7 x i8], %"class.llvh::SmallDenseSet", %"class.llvh::SmallDenseSet" }
%"class.llvh::SmallDenseSet" = type { %"class.llvh::detail::DenseSetImpl" }
%"class.llvh::detail::DenseSetImpl" = type { %"class.llvh::SmallDenseMap" }
%"class.llvh::SmallDenseMap" = type { i32, i32, %"struct.llvh::AlignedCharArrayUnion.118" }
%"struct.llvh::AlignedCharArrayUnion.118" = type { %"struct.llvh::AlignedCharArray.119" }
%"struct.llvh::AlignedCharArray.119" = type { [64 x i8] }
%"struct.hermes::OptimizationSettings" = type { i8, i8, i8, i8, i8, i8 }
%"class.std::shared_ptr.120" = type { %"class.std::__shared_ptr.121" }
%"class.std::__shared_ptr.121" = type { ptr, %"class.std::__shared_count" }

; Function Attrs: mustprogress nounwind uwtable
define linkonce_odr hidden void @_ZN6hermes10IdentifierC2EPNS_12UniqueStringE(ptr noundef nonnull align 8 dereferenceable(8) %this, ptr noundef %ptr) unnamed_addr #0 comdat align 2 {
entry:
  %this.addr = alloca ptr, align 8
  %ptr.addr = alloca ptr, align 8
  store ptr %this, ptr %this.addr, align 8
  store ptr %ptr, ptr %ptr.addr, align 8
  %this1 = load ptr, ptr %this.addr, align 8
  %ptr_ = getelementptr inbounds %"class.hermes::Identifier", ptr %this1, i32 0, i32 0
  %0 = load ptr, ptr %ptr.addr, align 8
  store ptr %0, ptr %ptr_, align 8
  ret void
}

; Function Attrs: mustprogress nounwind uwtable
define linkonce_odr hidden noundef ptr @_ZNKSt12__shared_ptrIN6hermes7ContextELN9__gnu_cxx12_Lock_policyE2EE3getEv(ptr noundef nonnull align 8 dereferenceable(16) %this) #0 comdat align 2 {
entry:
  %this.addr = alloca ptr, align 8
  store ptr %this, ptr %this.addr, align 8
  %this1 = load ptr, ptr %this.addr, align 8
  %_M_ptr = getelementptr inbounds %"class.std::__shared_ptr.20", ptr %this1, i32 0, i32 0
  %0 = load ptr, ptr %_M_ptr, align 8
  ret ptr %0
}

; Function Attrs: mustprogress nounwind uwtable
define linkonce_odr hidden ptr @_ZN6hermes10Identifier14getFromPointerEPNS_12UniqueStringE(ptr noundef %ptr) #0 comdat align 2 {
entry:
  %retval = alloca %"class.hermes::Identifier", align 8
  %ptr.addr = alloca ptr, align 8
  store ptr %ptr, ptr %ptr.addr, align 8
  %0 = load ptr, ptr %ptr.addr, align 8
  call void @_ZN6hermes10IdentifierC2EPNS_12UniqueStringE(ptr noundef nonnull align 8 dereferenceable(8) %retval, ptr noundef %0)
  %coerce.dive = getelementptr inbounds %"class.hermes::Identifier", ptr %retval, i32 0, i32 0
  %1 = load ptr, ptr %coerce.dive, align 8
  ret ptr %1
}

; Function Attrs: mustprogress nounwind uwtable
define linkonce_odr hidden noundef ptr @_ZNKSt19__shared_ptr_accessIN6hermes7ContextELN9__gnu_cxx12_Lock_policyE2ELb0ELb0EE6_M_getEv(ptr noundef nonnull align 1 dereferenceable(1) %this) #0 comdat align 2 {
entry:
  %this.addr = alloca ptr, align 8
  store ptr %this, ptr %this.addr, align 8
  %this1 = load ptr, ptr %this.addr, align 8
  %call = call noundef ptr @_ZNKSt12__shared_ptrIN6hermes7ContextELN9__gnu_cxx12_Lock_policyE2EE3getEv(ptr noundef nonnull align 8 dereferenceable(16) %this1) #11
  ret ptr %call
}

; Function Attrs: mustprogress nounwind uwtable
define linkonce_odr hidden ptr @_ZN6hermes11StringTable13getIdentifierEN4llvh9StringRefE(ptr noundef nonnull align 8 dereferenceable(32) %this, ptr %name.coerce0, i64 %name.coerce1) #0 comdat align 2 {
entry:
  %retval = alloca %"class.hermes::Identifier", align 8
  %name = alloca %"class.llvh::StringRef", align 8
  %this.addr = alloca ptr, align 8
  %agg.tmp = alloca %"class.llvh::StringRef", align 8
  %0 = getelementptr inbounds { ptr, i64 }, ptr %name, i32 0, i32 0
  store ptr %name.coerce0, ptr %0, align 8
  %1 = getelementptr inbounds { ptr, i64 }, ptr %name, i32 0, i32 1
  store i64 %name.coerce1, ptr %1, align 8
  store ptr %this, ptr %this.addr, align 8
  %this1 = load ptr, ptr %this.addr, align 8
  call void @llvm.memcpy.p0.p0.i64(ptr align 8 %agg.tmp, ptr align 8 %name, i64 16, i1 false)
  %2 = getelementptr inbounds { ptr, i64 }, ptr %agg.tmp, i32 0, i32 0
  %3 = load ptr, ptr %2, align 8
  %4 = getelementptr inbounds { ptr, i64 }, ptr %agg.tmp, i32 0, i32 1
  %5 = load i64, ptr %4, align 8
  %call = call noundef ptr @_ZN6hermes11StringTable9getStringEN4llvh9StringRefE(ptr noundef nonnull align 8 dereferenceable(32) %this1, ptr %3, i64 %5)
  %call2 = call ptr @_ZN6hermes10Identifier14getFromPointerEPNS_12UniqueStringE(ptr noundef %call)
  %coerce.dive = getelementptr inbounds %"class.hermes::Identifier", ptr %retval, i32 0, i32 0
  store ptr %call2, ptr %coerce.dive, align 8
  %coerce.dive3 = getelementptr inbounds %"class.hermes::Identifier", ptr %retval, i32 0, i32 0
  %6 = load ptr, ptr %coerce.dive3, align 8
  ret ptr %6
}

; Function Attrs: mustprogress nounwind uwtable
define linkonce_odr hidden noundef nonnull align 8 dereferenceable(656) ptr @_ZNKSt19__shared_ptr_accessIN6hermes7ContextELN9__gnu_cxx12_Lock_policyE2ELb0ELb0EEdeEv(ptr noundef nonnull align 1 dereferenceable(1) %this) #0 comdat align 2 {
entry:
  %this.addr = alloca ptr, align 8
  store ptr %this, ptr %this.addr, align 8
  %this1 = load ptr, ptr %this.addr, align 8
  br label %do.body

do.body:                                          ; preds = %entry
  br label %do.end

do.end:                                           ; preds = %do.body
  %call = call noundef ptr @_ZNKSt19__shared_ptr_accessIN6hermes7ContextELN9__gnu_cxx12_Lock_policyE2ELb0ELb0EE6_M_getEv(ptr noundef nonnull align 1 dereferenceable(1) %this1) #11
  ret ptr %call
}

; Function Attrs: mustprogress nounwind uwtable
define hidden noundef ptr @_ZN6hermes9IRBuilder16getLiteralStringENS_10IdentifierE(ptr noundef nonnull align 8 dereferenceable(40) %this, ptr %value.coerce) #0 align 2 {
entry:
  %value = alloca %"class.hermes::Identifier", align 8
  %this.addr = alloca ptr, align 8
  %agg.tmp = alloca %"class.hermes::Identifier", align 8
  %coerce.dive = getelementptr inbounds %"class.hermes::Identifier", ptr %value, i32 0, i32 0
  store ptr %value.coerce, ptr %coerce.dive, align 8
  store ptr %this, ptr %this.addr, align 8
  %this1 = load ptr, ptr %this.addr, align 8
  %M = getelementptr inbounds %"class.hermes::IRBuilder", ptr %this1, i32 0, i32 0
  %0 = load ptr, ptr %M, align 8
  call void @llvm.memcpy.p0.p0.i64(ptr align 8 %agg.tmp, ptr align 8 %value, i64 8, i1 false)
  %coerce.dive2 = getelementptr inbounds %"class.hermes::Identifier", ptr %agg.tmp, i32 0, i32 0
  %1 = load ptr, ptr %coerce.dive2, align 8
  %call = call noundef ptr @_ZN6hermes6Module16getLiteralStringENS_10IdentifierE(ptr noundef nonnull align 8 dereferenceable(1033) %0, ptr %1)
  ret ptr %call
}

; Function Attrs: mustprogress nounwind uwtable
define linkonce_odr hidden ptr @_ZN6hermes7Context13getIdentifierEN4llvh9StringRefE(ptr noundef nonnull align 8 dereferenceable(656) %this, ptr %str.coerce0, i64 %str.coerce1) #0 comdat align 2 {
entry:
  %retval = alloca %"class.hermes::Identifier", align 8
  %str = alloca %"class.llvh::StringRef", align 8
  %this.addr = alloca ptr, align 8
  %agg.tmp = alloca %"class.llvh::StringRef", align 8
  %0 = getelementptr inbounds { ptr, i64 }, ptr %str, i32 0, i32 0
  store ptr %str.coerce0, ptr %0, align 8
  %1 = getelementptr inbounds { ptr, i64 }, ptr %str, i32 0, i32 1
  store i64 %str.coerce1, ptr %1, align 8
  store ptr %this, ptr %this.addr, align 8
  %this1 = load ptr, ptr %this.addr, align 8
  %stringTable_ = getelementptr inbounds %"class.hermes::Context", ptr %this1, i32 0, i32 3
  call void @llvm.memcpy.p0.p0.i64(ptr align 8 %agg.tmp, ptr align 8 %str, i64 16, i1 false)
  %2 = getelementptr inbounds { ptr, i64 }, ptr %agg.tmp, i32 0, i32 0
  %3 = load ptr, ptr %2, align 8
  %4 = getelementptr inbounds { ptr, i64 }, ptr %agg.tmp, i32 0, i32 1
  %5 = load i64, ptr %4, align 8
  %call = call ptr @_ZN6hermes11StringTable13getIdentifierEN4llvh9StringRefE(ptr noundef nonnull align 8 dereferenceable(32) %stringTable_, ptr %3, i64 %5)
  %coerce.dive = getelementptr inbounds %"class.hermes::Identifier", ptr %retval, i32 0, i32 0
  store ptr %call, ptr %coerce.dive, align 8
  %coerce.dive2 = getelementptr inbounds %"class.hermes::Identifier", ptr %retval, i32 0, i32 0
  %6 = load ptr, ptr %coerce.dive2, align 8
  ret ptr %6
}

; Function Attrs: mustprogress nounwind uwtable
define linkonce_odr hidden noundef nonnull align 8 dereferenceable(656) ptr @_ZNK6hermes6Module10getContextEv(ptr noundef nonnull align 8 dereferenceable(1033) %this) #0 comdat align 2 {
entry:
  %this.addr = alloca ptr, align 8
  store ptr %this, ptr %this.addr, align 8
  %this1 = load ptr, ptr %this.addr, align 8
  %Ctx = getelementptr inbounds %"class.hermes::Module", ptr %this1, i32 0, i32 1
  %call = call noundef nonnull align 8 dereferenceable(656) ptr @_ZNKSt19__shared_ptr_accessIN6hermes7ContextELN9__gnu_cxx12_Lock_policyE2ELb0ELb0EEdeEv(ptr noundef nonnull align 1 dereferenceable(1) %Ctx) #11
  ret ptr %call
}

; Function Attrs: mustprogress nounwind uwtable
define hidden noundef ptr @_ZN6hermes9IRBuilder23createStorePropertyInstEPNS_5ValueES2_NS_10IdentifierE(ptr noundef nonnull align 8 dereferenceable(40) %this, ptr noundef %storedValue, ptr noundef %object, ptr %property.coerce) #0 align 2 {
entry:
  %property = alloca %"class.hermes::Identifier", align 8
  %this.addr = alloca ptr, align 8
  %storedValue.addr = alloca ptr, align 8
  %object.addr = alloca ptr, align 8
  %L = alloca ptr, align 8
  %agg.tmp = alloca %"class.hermes::Identifier", align 8
  %coerce.dive = getelementptr inbounds %"class.hermes::Identifier", ptr %property, i32 0, i32 0
  store ptr %property.coerce, ptr %coerce.dive, align 8
  store ptr %this, ptr %this.addr, align 8
  store ptr %storedValue, ptr %storedValue.addr, align 8
  store ptr %object, ptr %object.addr, align 8
  %this1 = load ptr, ptr %this.addr, align 8
  call void @llvm.memcpy.p0.p0.i64(ptr align 8 %agg.tmp, ptr align 8 %property, i64 8, i1 false)
  %coerce.dive2 = getelementptr inbounds %"class.hermes::Identifier", ptr %agg.tmp, i32 0, i32 0
  %0 = load ptr, ptr %coerce.dive2, align 8
  %call = call noundef ptr @_ZN6hermes9IRBuilder16getLiteralStringENS_10IdentifierE(ptr noundef nonnull align 8 dereferenceable(40) %this1, ptr %0)
  store ptr %call, ptr %L, align 8
  %1 = load ptr, ptr %storedValue.addr, align 8
  %2 = load ptr, ptr %object.addr, align 8
  %3 = load ptr, ptr %L, align 8
  %call3 = call noundef ptr @_ZN6hermes9IRBuilder23createStorePropertyInstEPNS_5ValueES2_S2_(ptr noundef nonnull align 8 dereferenceable(40) %this1, ptr noundef %1, ptr noundef %2, ptr noundef %3)
  ret ptr %call3
}

; Function Attrs: mustprogress nounwind uwtable
define hidden ptr @_ZN6hermes9IRBuilder16createIdentifierEN4llvh9StringRefE(ptr noundef nonnull align 8 dereferenceable(40) %this, ptr %str.coerce0, i64 %str.coerce1) #0 align 2 {
entry:
  %retval = alloca %"class.hermes::Identifier", align 8
  %str = alloca %"class.llvh::StringRef", align 8
  %this.addr = alloca ptr, align 8
  %agg.tmp = alloca %"class.llvh::StringRef", align 8
  %0 = getelementptr inbounds { ptr, i64 }, ptr %str, i32 0, i32 0
  store ptr %str.coerce0, ptr %0, align 8
  %1 = getelementptr inbounds { ptr, i64 }, ptr %str, i32 0, i32 1
  store i64 %str.coerce1, ptr %1, align 8
  store ptr %this, ptr %this.addr, align 8
  %this1 = load ptr, ptr %this.addr, align 8
  %M = getelementptr inbounds %"class.hermes::IRBuilder", ptr %this1, i32 0, i32 0
  %2 = load ptr, ptr %M, align 8
  %call = call noundef nonnull align 8 dereferenceable(656) ptr @_ZNK6hermes6Module10getContextEv(ptr noundef nonnull align 8 dereferenceable(1033) %2)
  call void @llvm.memcpy.p0.p0.i64(ptr align 8 %agg.tmp, ptr align 8 %str, i64 16, i1 false)
  %3 = getelementptr inbounds { ptr, i64 }, ptr %agg.tmp, i32 0, i32 0
  %4 = load ptr, ptr %3, align 8
  %5 = getelementptr inbounds { ptr, i64 }, ptr %agg.tmp, i32 0, i32 1
  %6 = load i64, ptr %5, align 8
  %call2 = call ptr @_ZN6hermes7Context13getIdentifierEN4llvh9StringRefE(ptr noundef nonnull align 8 dereferenceable(656) %call, ptr %4, i64 %6)
  %coerce.dive = getelementptr inbounds %"class.hermes::Identifier", ptr %retval, i32 0, i32 0
  store ptr %call2, ptr %coerce.dive, align 8
  %coerce.dive3 = getelementptr inbounds %"class.hermes::Identifier", ptr %retval, i32 0, i32 0
  %7 = load ptr, ptr %coerce.dive3, align 8
  ret ptr %7
}

; Function Attrs: mustprogress nounwind uwtable
define hidden noundef ptr @_ZN6hermes9IRBuilder23createStorePropertyInstEPNS_5ValueES2_N4llvh9StringRefE(ptr noundef nonnull align 8 dereferenceable(40) %this, ptr noundef %storedValue, ptr noundef %object, ptr %property.coerce0, i64 %property.coerce1) #0 align 2 {
entry:
  %property = alloca %"class.llvh::StringRef", align 8
  %this.addr = alloca ptr, align 8
  %storedValue.addr = alloca ptr, align 8
  %object.addr = alloca ptr, align 8
  %Iden = alloca %"class.hermes::Identifier", align 8
  %agg.tmp = alloca %"class.llvh::StringRef", align 8
  %agg.tmp2 = alloca %"class.hermes::Identifier", align 8
  %0 = getelementptr inbounds { ptr, i64 }, ptr %property, i32 0, i32 0
  store ptr %property.coerce0, ptr %0, align 8
  %1 = getelementptr inbounds { ptr, i64 }, ptr %property, i32 0, i32 1
  store i64 %property.coerce1, ptr %1, align 8
  store ptr %this, ptr %this.addr, align 8
  store ptr %storedValue, ptr %storedValue.addr, align 8
  store ptr %object, ptr %object.addr, align 8
  %this1 = load ptr, ptr %this.addr, align 8
  call void @llvm.memcpy.p0.p0.i64(ptr align 8 %agg.tmp, ptr align 8 %property, i64 16, i1 false)
  %2 = getelementptr inbounds { ptr, i64 }, ptr %agg.tmp, i32 0, i32 0
  %3 = load ptr, ptr %2, align 8
  %4 = getelementptr inbounds { ptr, i64 }, ptr %agg.tmp, i32 0, i32 1
  %5 = load i64, ptr %4, align 8
  %call = call ptr @_ZN6hermes9IRBuilder16createIdentifierEN4llvh9StringRefE(ptr noundef nonnull align 8 dereferenceable(40) %this1, ptr %3, i64 %5)
  %coerce.dive = getelementptr inbounds %"class.hermes::Identifier", ptr %Iden, i32 0, i32 0
  store ptr %call, ptr %coerce.dive, align 8
  %6 = load ptr, ptr %storedValue.addr, align 8
  %7 = load ptr, ptr %object.addr, align 8
  call void @llvm.memcpy.p0.p0.i64(ptr align 8 %agg.tmp2, ptr align 8 %Iden, i64 8, i1 false)
  %coerce.dive3 = getelementptr inbounds %"class.hermes::Identifier", ptr %agg.tmp2, i32 0, i32 0
  %8 = load ptr, ptr %coerce.dive3, align 8
  %call4 = call noundef ptr @_ZN6hermes9IRBuilder23createStorePropertyInstEPNS_5ValueES2_NS_10IdentifierE(ptr noundef nonnull align 8 dereferenceable(40) %this1, ptr noundef %6, ptr noundef %7, ptr %8)
  ret ptr %call4
}